target datalayout = "e-m:e-p270:32:32-p271:32:32-p272:64:64-i64:64-i128:128-f80:128-n8:16:32:64-S128"
target triple = "x86_64-pc-linux-gnu"

%struct.sharedObjectsStruct = type { ptr, ptr, ptr, ptr, ptr, ptr, ptr, ptr, [4 x ptr], [4 x ptr], [4 x ptr], [4 x ptr], ptr, ptr, ptr, ptr, ptr, ptr, ptr, ptr, ptr, ptr, ptr, ptr, ptr, ptr, ptr, ptr, ptr, ptr, ptr, ptr, ptr, ptr, ptr, ptr, ptr, ptr, ptr, ptr, ptr, ptr, ptr, ptr, ptr, ptr, ptr, ptr, ptr, ptr, ptr, ptr, ptr, ptr, ptr, ptr, ptr, ptr, ptr, ptr, ptr, ptr, ptr, ptr, ptr, ptr, ptr, ptr, ptr, ptr, ptr, ptr, ptr, ptr, ptr, ptr, ptr, ptr, ptr, ptr, ptr, ptr, ptr, ptr, ptr, ptr, ptr, ptr, [10 x ptr], [10000 x ptr], [32 x ptr], [32 x ptr], [32 x ptr], [32 x ptr], ptr, ptr }
%struct.redisObject = type { i32, i32, ptr }
%struct.client = type { i64, i64, ptr, i8, i8, i8, i8, i32, ptr, ptr, ptr, ptr, ptr, i64, i64, i32, ptr, i32, i32, ptr, i64, ptr, ptr, ptr, ptr, ptr, i32, i32, i64, ptr, i64, ptr, i64, i64, i64, i32, ptr, i64, i64, i32, i32, i32, i32, i64, i64, ptr, i64, i64, i64, i64, i64, i64, i64, i64, [41 x i8], i32, ptr, i32, i32, i64, %struct.multiState, %struct.blockingState, i64, ptr, ptr, ptr, ptr, ptr, ptr, ptr, ptr, ptr, ptr, ptr, ptr, ptr, ptr, i64, ptr, i64, i32, ptr, ptr, ptr, i64, %struct.listNode, i64, i64, i32, i64, ptr }
%struct.multiState = type { ptr, i32, i32, i32, i64, i32 }
%struct.blockingState = type { i32, i64, i32, ptr, i32, i32, i64, ptr, ptr, i64 }
%struct.listNode = type { ptr, ptr, ptr }

@.str.1 = private unnamed_addr constant [13 x i8] c"networking.c\00", align 1
@.str.20 = private unnamed_addr constant [12 x i8] c"length >= 0\00", align 1
@shared = external global %struct.sharedObjectsStruct, align 8
@.str.21 = private unnamed_addr constant [8 x i8] c"%c%ld\0D\0A\00", align 1
@.str.22 = private unnamed_addr constant [13 x i8] c"c->resp >= 3\00", align 1

; Function Attrs: nounwind uwtable
define dso_local void @setDeferredAggregateLen(ptr noundef %0, ptr noundef %1, i64 noundef %2, i8 noundef signext %3) #0 {
  %5 = alloca ptr, align 8
  %6 = alloca ptr, align 8
  %7 = alloca i64, align 8
  %8 = alloca i8, align 1
  %9 = alloca i64, align 8
  %10 = alloca i32, align 4
  %11 = alloca i32, align 4
  %12 = alloca [128 x i8], align 16
  %13 = alloca i64, align 8
  store ptr %0, ptr %5, align 8, !tbaa !24
  store ptr %1, ptr %6, align 8, !tbaa !10
  store i64 %2, ptr %7, align 8, !tbaa !20
  store i8 %3, ptr %8, align 1, !tbaa !16
  %14 = load i64, ptr %7, align 8, !tbaa !20
  %15 = icmp sge i64 %14, 0
  %16 = xor i1 %15, true
  %17 = xor i1 %16, true
  %18 = zext i1 %17 to i32
  %19 = sext i32 %18 to i64
  %20 = call i64 @llvm.expect.i64(i64 %19, i64 1)
  %21 = icmp ne i64 %20, 0
  br i1 %21, label %22, label %23

22:                                               ; preds = %4
  br label %25

23:                                               ; preds = %4
  call void @_serverAssert(ptr noundef @.str.20, ptr noundef @.str.1, i32 noundef 821)
  call void @abort() #17
  unreachable

24:                                               ; No predecessors!
  br label %25

25:                                               ; preds = %24, %22
  %26 = load ptr, ptr %6, align 8, !tbaa !10
  %27 = icmp eq ptr %26, null
  br i1 %27, label %28, label %29

28:                                               ; preds = %25
  br label %97

29:                                               ; preds = %25
  call void @llvm.lifetime.start.p0(i64 8, ptr %9) #16
  %30 = load i64, ptr %7, align 8, !tbaa !20
  %31 = icmp slt i64 %30, 10
  %32 = select i1 %31, i32 4, i32 5
  %33 = sext i32 %32 to i64
  store i64 %33, ptr %9, align 8, !tbaa !20
  call void @llvm.lifetime.start.p0(i64 4, ptr %10) #16
  %34 = load i64, ptr %7, align 8, !tbaa !20
  %35 = icmp slt i64 %34, 32
  %36 = zext i1 %35 to i32
  store i32 %36, ptr %10, align 4, !tbaa !19
  %37 = load i8, ptr %8, align 1, !tbaa !16
  %38 = sext i8 %37 to i32
  %39 = icmp eq i32 %38, 42
  br i1 %39, label %40, label %52

40:                                               ; preds = %29
  %41 = load i32, ptr %10, align 4, !tbaa !19
  %42 = icmp ne i32 %41, 0
  br i1 %42, label %43, label %52

43:                                               ; preds = %40
  %44 = load ptr, ptr %5, align 8, !tbaa !24
  %45 = load ptr, ptr %6, align 8, !tbaa !10
  %46 = load i64, ptr %7, align 8, !tbaa !20
  %47 = getelementptr inbounds [32 x ptr], ptr getelementptr inbounds nuw (%struct.sharedObjectsStruct, ptr @shared, i32 0, i32 90), i64 0, i64 %46
  %48 = load ptr, ptr %47, align 8, !tbaa !11
  %49 = getelementptr inbounds nuw %struct.redisObject, ptr %48, i32 0, i32 2
  %50 = load ptr, ptr %49, align 8, !tbaa !13
  %51 = load i64, ptr %9, align 8, !tbaa !20
  call void @setDeferredReply(ptr noundef %44, ptr noundef %45, ptr noundef %50, i64 noundef %51)
  store i32 1, ptr %11, align 4
  br label %95

52:                                               ; preds = %40, %29
  %53 = load i8, ptr %8, align 1, !tbaa !16
  %54 = sext i8 %53 to i32
  %55 = icmp eq i32 %54, 37
  br i1 %55, label %56, label %68

56:                                               ; preds = %52
  %57 = load i32, ptr %10, align 4, !tbaa !19
  %58 = icmp ne i32 %57, 0
  br i1 %58, label %59, label %68

59:                                               ; preds = %56
  %60 = load ptr, ptr %5, align 8, !tbaa !24
  %61 = load ptr, ptr %6, align 8, !tbaa !10
  %62 = load i64, ptr %7, align 8, !tbaa !20
  %63 = getelementptr inbounds [32 x ptr], ptr getelementptr inbounds nuw (%struct.sharedObjectsStruct, ptr @shared, i32 0, i32 92), i64 0, i64 %62
  %64 = load ptr, ptr %63, align 8, !tbaa !11
  %65 = getelementptr inbounds nuw %struct.redisObject, ptr %64, i32 0, i32 2
  %66 = load ptr, ptr %65, align 8, !tbaa !13
  %67 = load i64, ptr %9, align 8, !tbaa !20
  call void @setDeferredReply(ptr noundef %60, ptr noundef %61, ptr noundef %66, i64 noundef %67)
  store i32 1, ptr %11, align 4
  br label %95

68:                                               ; preds = %56, %52
  %69 = load i8, ptr %8, align 1, !tbaa !16
  %70 = sext i8 %69 to i32
  %71 = icmp eq i32 %70, 126
  br i1 %71, label %72, label %84

72:                                               ; preds = %68
  %73 = load i32, ptr %10, align 4, !tbaa !19
  %74 = icmp ne i32 %73, 0
  br i1 %74, label %75, label %84

75:                                               ; preds = %72
  %76 = load ptr, ptr %5, align 8, !tbaa !24
  %77 = load ptr, ptr %6, align 8, !tbaa !10
  %78 = load i64, ptr %7, align 8, !tbaa !20
  %79 = getelementptr inbounds [32 x ptr], ptr getelementptr inbounds nuw (%struct.sharedObjectsStruct, ptr @shared, i32 0, i32 93), i64 0, i64 %78
  %80 = load ptr, ptr %79, align 8, !tbaa !11
  %81 = getelementptr inbounds nuw %struct.redisObject, ptr %80, i32 0, i32 2
  %82 = load ptr, ptr %81, align 8, !tbaa !13
  %83 = load i64, ptr %9, align 8, !tbaa !20
  call void @setDeferredReply(ptr noundef %76, ptr noundef %77, ptr noundef %82, i64 noundef %83)
  store i32 1, ptr %11, align 4
  br label %95

84:                                               ; preds = %72, %68
  call void @llvm.lifetime.start.p0(i64 128, ptr %12) #16
  call void @llvm.lifetime.start.p0(i64 8, ptr %13) #16
  %85 = getelementptr inbounds [128 x i8], ptr %12, i64 0, i64 0
  %86 = load i8, ptr %8, align 1, !tbaa !16
  %87 = sext i8 %86 to i32
  %88 = load i64, ptr %7, align 8, !tbaa !20
  %89 = call i32 (ptr, i64, ptr, ...) @snprintf(ptr noundef %85, i64 noundef 128, ptr noundef @.str.21, i32 noundef %87, i64 noundef %88) #16
  %90 = sext i32 %89 to i64
  store i64 %90, ptr %13, align 8, !tbaa !20
  %91 = load ptr, ptr %5, align 8, !tbaa !24
  %92 = load ptr, ptr %6, align 8, !tbaa !10
  %93 = getelementptr inbounds [128 x i8], ptr %12, i64 0, i64 0
  %94 = load i64, ptr %13, align 8, !tbaa !20
  call void @setDeferredReply(ptr noundef %91, ptr noundef %92, ptr noundef %93, i64 noundef %94)
  call void @llvm.lifetime.end.p0(i64 8, ptr %13) #16
  call void @llvm.lifetime.end.p0(i64 128, ptr %12) #16
  store i32 0, ptr %11, align 4
  br label %95

95:                                               ; preds = %84, %75, %59, %43
  call void @llvm.lifetime.end.p0(i64 4, ptr %10) #16
  call void @llvm.lifetime.end.p0(i64 8, ptr %9) #16
  %96 = load i32, ptr %11, align 4
  switch i32 %96, label %98 [
    i32 0, label %97
    i32 1, label %97
  ]

97:                                               ; preds = %28, %95, %95
  ret void

98:                                               ; preds = %95
  unreachable
}

; Function Attrs: nounwind uwtable
define dso_local void @setDeferredPushLen(ptr noundef %0, ptr noundef %1, i64 noundef %2) #0 {
  %4 = alloca ptr, align 8
  %5 = alloca ptr, align 8
  %6 = alloca i64, align 8
  store ptr %0, ptr %4, align 8, !tbaa !24
  store ptr %1, ptr %5, align 8, !tbaa !10
  store i64 %2, ptr %6, align 8, !tbaa !20
  %7 = load ptr, ptr %4, align 8, !tbaa !24
  %8 = getelementptr inbounds nuw %struct.client, ptr %7, i32 0, i32 7
  %9 = load i32, ptr %8, align 4, !tbaa !74
  %10 = icmp sge i32 %9, 3
  %11 = xor i1 %10, true
  %12 = xor i1 %11, true
  %13 = zext i1 %12 to i32
  %14 = sext i32 %13 to i64
  %15 = call i64 @llvm.expect.i64(i64 %14, i64 1)
  %16 = icmp ne i64 %15, 0
  br i1 %16, label %17, label %18

17:                                               ; preds = %3
  br label %20

18:                                               ; preds = %3
  call void @_serverAssert(ptr noundef @.str.22, ptr noundef @.str.1, i32 noundef 871)
  call void @abort() #17
  unreachable

19:                                               ; No predecessors!
  br label %20

20:                                               ; preds = %19, %17
  %21 = load ptr, ptr %4, align 8, !tbaa !24
  %22 = load ptr, ptr %5, align 8, !tbaa !10
  %23 = load i64, ptr %6, align 8, !tbaa !20
  call void @setDeferredAggregateLen(ptr noundef %21, ptr noundef %22, i64 noundef %23, i8 noundef signext 62)
  ret void
}