; Function Attrs: nounwind uwtable
define dso_local void @setDeferredPushLen(ptr noundef %0, ptr noundef %1, i64 noundef %2) local_unnamed_addr #0 {
  %4 = alloca [128 x i8], align 16
  %5 = getelementptr inbounds nuw i8, ptr %0, i64 28
  %6 = load i32, ptr %5, align 4, !tbaa !74
  %7 = icmp sgt i32 %6, 2
  br i1 %7, label %9, label %8, !prof !5

8:                                                ; preds = %3
  tail call void @_serverAssert(ptr noundef nonnull @.str.22, ptr noundef nonnull @.str.1, i32 noundef 871) #26
  tail call void @abort() #27
  unreachable

9:                                                ; preds = %3
  %10 = icmp sgt i64 %2, -1
  br i1 %10, label %12, label %11, !prof !5

11:                                               ; preds = %9
  tail call void @_serverAssert(ptr noundef nonnull @.str.20, ptr noundef nonnull @.str.1, i32 noundef 821) #26
  tail call void @abort() #27
  unreachable

12:                                               ; preds = %9
  %13 = icmp eq ptr %1, null
  br i1 %13, label %setDeferredAggregateLen.exit, label %14

14:                                               ; preds = %12
  call void @llvm.lifetime.start.p0(i64 128, ptr nonnull %4) #26
  %15 = call i32 (ptr, i64, ptr, ...) @snprintf(ptr noundef nonnull dereferenceable(1) %4, i64 noundef 128, ptr noundef nonnull @.str.21, i32 noundef 62, i64 noundef %2) #26
  %16 = sext i32 %15 to i64
  call void @setDeferredReply(ptr noundef nonnull %0, ptr noundef nonnull %1, ptr noundef nonnull %4, i64 noundef %16)
  call void @llvm.lifetime.end.p0(i64 128, ptr nonnull %4) #26
  br label %setDeferredAggregateLen.exit

setDeferredAggregateLen.exit:                     ; preds = %12, %14
  ret void
}